target datalayout = "e-m:e-p270:32:32-p271:32:32-p272:64:64-i64:64-i128:128-f80:128-n8:16:32:64-S128"
target triple = "x86_64-pc-linux-gnu"

%struct.color_t = type { i16, i16, i16 }
%struct._color_filter = type { ptr, ptr, %struct.color_t, %struct.color_t, i8, ptr }
%struct._GSList = type { ptr, ptr }
%struct.df_error_t = type { i32, ptr, %struct._dfilter_loc }
%struct._dfilter_loc = type { i64, i64 }

@.str = private unnamed_addr constant [7 x i8] c"%s%02d\00", align 1
@.str.1 = private unnamed_addr constant [32 x i8] c"___conversation_color_filter___\00", align 1
@color_filter_list = internal global ptr null, align 8
@.str.2 = private unnamed_addr constant [6 x i8] c"frame\00", align 1
@__func__.color_filters_set_tmp = private unnamed_addr constant [22 x i8] c"color_filters_set_tmp\00", align 1
@.str.3 = private unnamed_addr constant [57 x i8] c"Could not compile color filter name: \22%s\22 text: \22%s\22.\0A%s\00", align 1
@tmp_colors_set = internal global i8 0, align 1

; Function Attrs: null_pointer_is_valid sspstrong uwtable
define zeroext i1 @color_filters_set_tmp(i8 noundef zeroext %0, ptr noundef %1, i1 noundef zeroext %2, ptr noundef %3) #0 {
  %5 = alloca i1, align 1
  %6 = alloca i8, align 1
  %7 = alloca ptr, align 8
  %8 = alloca i8, align 1
  %9 = alloca ptr, align 8
  %10 = alloca ptr, align 8
  %11 = alloca ptr, align 8
  %12 = alloca ptr, align 8
  %13 = alloca ptr, align 8
  %14 = alloca ptr, align 8
  %15 = alloca i8, align 1
  %16 = alloca ptr, align 8
  %17 = alloca i32, align 4
  store i8 %0, ptr %6, align 1
  store ptr %1, ptr %7, align 8
  %18 = zext i1 %2 to i8
  store i8 %18, ptr %8, align 1
  store ptr %3, ptr %9, align 8
  call void @llvm.lifetime.start.p0(i64 8, ptr %10) #13
  store ptr null, ptr %10, align 8
  call void @llvm.lifetime.start.p0(i64 8, ptr %11) #13
  store ptr null, ptr %11, align 8
  call void @llvm.lifetime.start.p0(i64 8, ptr %12) #13
  call void @llvm.lifetime.start.p0(i64 8, ptr %13) #13
  call void @llvm.lifetime.start.p0(i64 8, ptr %14) #13
  call void @llvm.lifetime.start.p0(i64 1, ptr %15) #13
  call void @llvm.lifetime.start.p0(i64 8, ptr %16) #13
  store ptr null, ptr %16, align 8
  store i8 1, ptr %15, align 1
  br label %19

19:                                               ; preds = %123, %4
  %20 = load i8, ptr %15, align 1
  %21 = zext i8 %20 to i32
  %22 = icmp sle i32 %21, 10
  br i1 %22, label %23, label %126

23:                                               ; preds = %19
  %24 = load i8, ptr %15, align 1
  %25 = zext i8 %24 to i32
  %26 = load i8, ptr %6, align 1
  %27 = zext i8 %26 to i32
  %28 = icmp ne i32 %25, %27
  br i1 %28, label %29, label %33

29:                                               ; preds = %23
  %30 = load ptr, ptr %7, align 8
  %31 = icmp eq ptr %30, null
  br i1 %31, label %32, label %33

32:                                               ; preds = %29
  br label %123

33:                                               ; preds = %29, %23
  %34 = load i8, ptr %15, align 1
  %35 = zext i8 %34 to i32
  %36 = call noalias ptr (ptr, ptr, ...) @wmem_strdup_printf(ptr noundef null, ptr noundef @.str, ptr noundef @.str.1, i32 noundef %35)
  store ptr %36, ptr %10, align 8
  %37 = load ptr, ptr @color_filter_list, align 8
  %38 = load ptr, ptr %10, align 8
  %39 = call ptr @g_slist_find_custom(ptr noundef %37, ptr noundef %38, ptr noundef @color_filters_find_by_name_cb)
  store ptr %39, ptr %12, align 8
  %40 = load ptr, ptr %12, align 8
  %41 = getelementptr inbounds nuw %struct._GSList, ptr %40, i32 0, i32 0
  %42 = load ptr, ptr %41, align 8
  store ptr %42, ptr %13, align 8
  %43 = load ptr, ptr %13, align 8
  %44 = icmp ne ptr %43, null
  br i1 %44, label %45, label %121

45:                                               ; preds = %33
  %46 = load i8, ptr %15, align 1
  %47 = zext i8 %46 to i32
  %48 = load i8, ptr %6, align 1
  %49 = zext i8 %48 to i32
  %50 = icmp eq i32 %47, %49
  br i1 %50, label %61, label %51

51:                                               ; preds = %45
  %52 = load ptr, ptr %7, align 8
  %53 = icmp eq ptr %52, null
  br i1 %53, label %61, label %54

54:                                               ; preds = %51
  %55 = load ptr, ptr %7, align 8
  %56 = load ptr, ptr %13, align 8
  %57 = getelementptr inbounds nuw %struct._color_filter, ptr %56, i32 0, i32 1
  %58 = load ptr, ptr %57, align 8
  %59 = call i32 @strcmp(ptr noundef %55, ptr noundef %58) #16
  %60 = icmp ne i32 %59, 0
  br i1 %60, label %121, label %61

61:                                               ; preds = %54, %51, %45
  %62 = load ptr, ptr %7, align 8
  %63 = icmp eq ptr %62, null
  br i1 %63, label %70, label %64

64:                                               ; preds = %61
  %65 = load i8, ptr %15, align 1
  %66 = zext i8 %65 to i32
  %67 = load i8, ptr %6, align 1
  %68 = zext i8 %67 to i32
  %69 = icmp ne i32 %66, %68
  br i1 %69, label %70, label %71

70:                                               ; preds = %64, %61
  br label %73

71:                                               ; preds = %64
  %72 = load ptr, ptr %7, align 8
  br label %73

73:                                               ; preds = %71, %70
  %74 = phi ptr [ @.str.2, %70 ], [ %72, %71 ]
  store ptr %74, ptr %11, align 8
  %75 = load ptr, ptr %11, align 8
  %76 = call zeroext i1 @dfilter_compile_full(ptr noundef %75, ptr noundef %14, ptr noundef %16, i32 noundef 6, ptr noundef @__func__.color_filters_set_tmp)
  br i1 %76, label %86, label %77

77:                                               ; preds = %73
  %78 = load ptr, ptr %10, align 8
  %79 = load ptr, ptr %7, align 8
  %80 = load ptr, ptr %16, align 8
  %81 = getelementptr inbounds nuw %struct.df_error_t, ptr %80, i32 0, i32 1
  %82 = load ptr, ptr %81, align 8
  %83 = call noalias ptr (ptr, ptr, ...) @wmem_strdup_printf(ptr noundef null, ptr noundef @.str.3, ptr noundef %78, ptr noundef %79, ptr noundef %82)
  %84 = load ptr, ptr %9, align 8
  store ptr %83, ptr %84, align 8
  call void @df_error_free(ptr noundef %16)
  %85 = load ptr, ptr %10, align 8
  call void @g_free(ptr noundef %85)
  store i1 false, ptr %5, align 1
  store i32 1, ptr %17, align 4
  br label %127

86:                                               ; preds = %73
  %87 = load ptr, ptr %13, align 8
  %88 = getelementptr inbounds nuw %struct._color_filter, ptr %87, i32 0, i32 1
  %89 = load ptr, ptr %88, align 8
  call void @g_free(ptr noundef %89)
  %90 = load ptr, ptr %13, align 8
  %91 = getelementptr inbounds nuw %struct._color_filter, ptr %90, i32 0, i32 5
  %92 = load ptr, ptr %91, align 8
  call void @dfilter_free(ptr noundef %92)
  %93 = load ptr, ptr %11, align 8
  %94 = call noalias ptr @g_strdup(ptr noundef %93)
  %95 = load ptr, ptr %13, align 8
  %96 = getelementptr inbounds nuw %struct._color_filter, ptr %95, i32 0, i32 1
  store ptr %94, ptr %96, align 8
  %97 = load ptr, ptr %14, align 8
  %98 = load ptr, ptr %13, align 8
  %99 = getelementptr inbounds nuw %struct._color_filter, ptr %98, i32 0, i32 5
  store ptr %97, ptr %99, align 8
  %100 = load i8, ptr %15, align 1
  %101 = zext i8 %100 to i32
  %102 = load i8, ptr %6, align 1
  %103 = zext i8 %102 to i32
  %104 = icmp ne i32 %101, %103
  br i1 %104, label %105, label %106

105:                                              ; preds = %86
  br label %110

106:                                              ; preds = %86
  %107 = load i8, ptr %8, align 1, !range !6, !noundef !7
  %108 = trunc i8 %107 to i1
  %109 = zext i1 %108 to i32
  br label %110

110:                                              ; preds = %106, %105
  %111 = phi i32 [ 1, %105 ], [ %109, %106 ]
  %112 = icmp ne i32 %111, 0
  %113 = load ptr, ptr %13, align 8
  %114 = getelementptr inbounds nuw %struct._color_filter, ptr %113, i32 0, i32 4
  %115 = zext i1 %112 to i8
  store i8 %115, ptr %114, align 4
  %116 = load ptr, ptr %7, align 8
  %117 = icmp ne ptr %116, null
  br i1 %117, label %118, label %119

118:                                              ; preds = %110
  store i8 1, ptr @tmp_colors_set, align 1
  br label %119

119:                                              ; preds = %118, %110
  br label %120

120:                                              ; preds = %119
  br label %121

121:                                              ; preds = %120, %54, %33
  %122 = load ptr, ptr %10, align 8
  call void @g_free(ptr noundef %122)
  br label %123

123:                                              ; preds = %121, %32
  %124 = load i8, ptr %15, align 1
  %125 = add i8 %124, 1
  store i8 %125, ptr %15, align 1
  br label %19, !llvm.loop !8

126:                                              ; preds = %19
  store i1 true, ptr %5, align 1
  store i32 1, ptr %17, align 4
  br label %127

127:                                              ; preds = %126, %77
  call void @llvm.lifetime.end.p0(i64 8, ptr %16) #13
  call void @llvm.lifetime.end.p0(i64 1, ptr %15) #13
  call void @llvm.lifetime.end.p0(i64 8, ptr %14) #13
  call void @llvm.lifetime.end.p0(i64 8, ptr %13) #13
  call void @llvm.lifetime.end.p0(i64 8, ptr %12) #13
  call void @llvm.lifetime.end.p0(i64 8, ptr %11) #13
  call void @llvm.lifetime.end.p0(i64 8, ptr %10) #13
  %128 = load i1, ptr %5, align 1
  ret i1 %128
}