; Function Attrs: null_pointer_is_valid sspstrong uwtable
define noundef zeroext i1 @color_filters_set_tmp(i8 noundef zeroext %0, ptr noundef %1, i1 noundef zeroext %2, ptr noundef writeonly captures(none) %3) local_unnamed_addr #0 {
  %5 = alloca ptr, align 8
  %6 = alloca ptr, align 8
  call void @llvm.lifetime.start.p0(i64 8, ptr nonnull %5) #14
  call void @llvm.lifetime.start.p0(i64 8, ptr nonnull %6) #14
  store ptr null, ptr %6, align 8
  %7 = icmp eq ptr %1, null
  %8 = zext i8 %0 to i32
  br label %9

9:                                                ; preds = %4, %41
  %indvars.iv = phi i32 [ 1, %4 ], [ %indvars.iv.next, %41 ]
  %10 = icmp ne i32 %indvars.iv, %8
  %or.cond = and i1 %7, %10
  br i1 %or.cond, label %41, label %11

11:                                               ; preds = %9
  %12 = call noalias ptr (ptr, ptr, ...) @wmem_strdup_printf(ptr noundef null, ptr noundef nonnull @.str, ptr noundef nonnull @.str.1, i32 noundef %indvars.iv)
  %13 = load ptr, ptr @color_filter_list, align 8
  %14 = call ptr @g_slist_find_custom(ptr noundef %13, ptr noundef %12, ptr noundef nonnull @color_filters_find_by_name_cb)
  %15 = load ptr, ptr %14, align 8
  %.not = icmp eq ptr %15, null
  br i1 %.not, label %40, label %16

16:                                               ; preds = %11
  %17 = icmp eq i32 %indvars.iv, %8
  %or.cond3 = or i1 %7, %17
  br i1 %or.cond3, label %22, label %18

18:                                               ; preds = %16
  %19 = getelementptr inbounds nuw i8, ptr %15, i64 8
  %20 = load ptr, ptr %19, align 8
  %21 = call i32 @strcmp(ptr noundef nonnull dereferenceable(1) %1, ptr noundef %20) #13
  %.not41 = icmp eq i32 %21, 0
  br i1 %.not41, label %22, label %40

22:                                               ; preds = %18, %16
  %23 = or i1 %7, %10
  %spec.select43 = select i1 %23, ptr @.str.2, ptr %1
  %24 = call zeroext i1 @dfilter_compile_full(ptr noundef %spec.select43, ptr noundef nonnull %5, ptr noundef nonnull %6, i32 noundef 6, ptr noundef nonnull @__func__.color_filters_set_tmp)
  br i1 %24, label %30, label %25

25:                                               ; preds = %22
  %26 = load ptr, ptr %6, align 8
  %27 = getelementptr inbounds nuw i8, ptr %26, i64 8
  %28 = load ptr, ptr %27, align 8
  %29 = call noalias ptr (ptr, ptr, ...) @wmem_strdup_printf(ptr noundef null, ptr noundef nonnull @.str.3, ptr noundef %12, ptr noundef %1, ptr noundef %28)
  store ptr %29, ptr %3, align 8
  call void @df_error_free(ptr noundef nonnull %6)
  call void @g_free(ptr noundef %12)
  br label %.loopexit

30:                                               ; preds = %22
  %31 = getelementptr inbounds nuw i8, ptr %15, i64 8
  %32 = load ptr, ptr %31, align 8
  call void @g_free(ptr noundef %32)
  %33 = getelementptr inbounds nuw i8, ptr %15, i64 32
  %34 = load ptr, ptr %33, align 8
  call void @dfilter_free(ptr noundef %34)
  %35 = call noalias ptr @g_strdup(ptr noundef %spec.select43)
  store ptr %35, ptr %31, align 8
  %36 = load ptr, ptr %5, align 8
  store ptr %36, ptr %33, align 8
  %narrow = or i1 %2, %10
  %37 = getelementptr inbounds nuw i8, ptr %15, i64 28
  %38 = zext i1 %narrow to i8
  store i8 %38, ptr %37, align 4
  br i1 %7, label %40, label %39

39:                                               ; preds = %30
  store i1 true, ptr @tmp_colors_set, align 1
  br label %40

40:                                               ; preds = %39, %30, %18, %11
  call void @g_free(ptr noundef %12)
  br label %41

41:                                               ; preds = %9, %40
  %indvars.iv.next = add nuw nsw i32 %indvars.iv, 1
  %exitcond = icmp eq i32 %indvars.iv.next, 11
  br i1 %exitcond, label %.loopexit, label %9, !llvm.loop !8

.loopexit:                                        ; preds = %41, %25
  %42 = phi i1 [ false, %25 ], [ true, %41 ]
  call void @llvm.lifetime.end.p0(i64 8, ptr nonnull %6) #14
  call void @llvm.lifetime.end.p0(i64 8, ptr nonnull %5) #14
  ret i1 %42
}